; Function Attrs: nounwind uwtable
define void @Gia_ManResubTest3_() local_unnamed_addr #0 {
  %1 = alloca [6 x i64], align 16
  %2 = alloca i64, align 8
  %3 = tail call ptr @Gia_ResbAlloc(i32 noundef 1)
  call void @llvm.lifetime.start.p0(i64 48, ptr nonnull %1) #32
  call void @llvm.memset.p0.i64(ptr noundef nonnull align 16 dereferenceable(48) %1, i8 0, i64 16, i1 false)
  %4 = getelementptr inbounds nuw i8, ptr %1, i64 16
  store i64 -6148914691236517206, ptr %4, align 16
  %5 = getelementptr inbounds nuw i8, ptr %1, i64 24
  store i64 -3689348814741910324, ptr %5, align 8
  %6 = getelementptr inbounds nuw i8, ptr %1, i64 32
  store i64 -1085102592571150096, ptr %6, align 16
  %7 = getelementptr inbounds nuw i8, ptr %1, i64 40
  store i64 -71777214294589696, ptr %7, align 8
  %8 = tail call noalias dereferenceable_or_null(16) ptr @malloc(i64 noundef 16) #31
  %9 = getelementptr inbounds nuw i8, ptr %8, i64 4
  store i32 0, ptr %9, align 4, !tbaa !73
  store i32 8, ptr %8, align 8, !tbaa !75
  %10 = tail call noalias dereferenceable_or_null(64) ptr @malloc(i64 noundef 64) #31
  %11 = getelementptr inbounds nuw i8, ptr %8, i64 8
  store ptr %10, ptr %11, align 8, !tbaa !76
  %12 = tail call noalias dereferenceable_or_null(16) ptr @malloc(i64 noundef 16) #31
  %13 = getelementptr inbounds nuw i8, ptr %12, i64 4
  store i32 0, ptr %13, align 4, !tbaa !28
  store i32 100, ptr %12, align 8, !tbaa !29
  %14 = tail call noalias dereferenceable_or_null(400) ptr @malloc(i64 noundef 400) #31
  %15 = getelementptr inbounds nuw i8, ptr %12, i64 8
  store ptr %14, ptr %15, align 8, !tbaa !30
  br label %16

16:                                               ; preds = %0, %Vec_PtrPush.exit
  %indvars.iv13 = phi i64 [ 0, %0 ], [ %indvars.iv.next14, %Vec_PtrPush.exit ]
  %indvars.iv = phi i64 [ 0, %0 ], [ %indvars.iv.next, %Vec_PtrPush.exit ]
  %17 = phi i32 [ 8, %0 ], [ %39, %Vec_PtrPush.exit ]
  %18 = getelementptr inbounds nuw i64, ptr %1, i64 %indvars.iv
  %19 = trunc nsw i64 %indvars.iv13 to i32
  %20 = icmp eq i32 %17, %19
  br i1 %20, label %21, label %.Vec_PtrGrow.exit11_crit_edge.i

.Vec_PtrGrow.exit11_crit_edge.i:                  ; preds = %16
  %.pre.i = load ptr, ptr %11, align 8, !tbaa !76
  br label %Vec_PtrPush.exit

21:                                               ; preds = %16
  %22 = icmp samesign ult i64 %indvars.iv13, 16
  %23 = load ptr, ptr %11, align 8, !tbaa !76
  %.not9.i.i = icmp eq ptr %23, null
  br i1 %22, label %24, label %30

24:                                               ; preds = %21
  br i1 %.not9.i.i, label %27, label %25

25:                                               ; preds = %24
  %26 = call dereferenceable_or_null(128) ptr @realloc(ptr noundef nonnull %23, i64 noundef 128) #30
  br label %Vec_PtrGrow.exit.i

27:                                               ; preds = %24
  %28 = call noalias dereferenceable_or_null(128) ptr @malloc(i64 noundef 128) #31
  br label %Vec_PtrGrow.exit.i

Vec_PtrGrow.exit.i:                               ; preds = %27, %25
  %29 = phi ptr [ %26, %25 ], [ %28, %27 ]
  store ptr %29, ptr %11, align 8, !tbaa !76
  br label %Vec_PtrPush.exit

30:                                               ; preds = %21
  %31 = shl nuw nsw i64 %indvars.iv13, 4
  br i1 %.not9.i.i, label %34, label %32

32:                                               ; preds = %30
  %33 = call ptr @realloc(ptr noundef nonnull %23, i64 noundef %31) #30
  br label %36

34:                                               ; preds = %30
  %35 = call noalias ptr @malloc(i64 noundef %31) #31
  br label %36

36:                                               ; preds = %34, %32
  %37 = phi ptr [ %33, %32 ], [ %35, %34 ]
  store ptr %37, ptr %11, align 8, !tbaa !76
  %indvars.iv13.tr = trunc i64 %indvars.iv13 to i32
  %38 = shl i32 %indvars.iv13.tr, 1
  br label %Vec_PtrPush.exit

Vec_PtrPush.exit:                                 ; preds = %.Vec_PtrGrow.exit11_crit_edge.i, %Vec_PtrGrow.exit.i, %36
  %39 = phi i32 [ %17, %.Vec_PtrGrow.exit11_crit_edge.i ], [ %38, %36 ], [ 16, %Vec_PtrGrow.exit.i ]
  %40 = phi ptr [ %.pre.i, %.Vec_PtrGrow.exit11_crit_edge.i ], [ %37, %36 ], [ %29, %Vec_PtrGrow.exit.i ]
  %indvars.iv.next14 = add nuw nsw i64 %indvars.iv13, 1
  %41 = getelementptr inbounds nuw ptr, ptr %40, i64 %indvars.iv13
  store ptr %18, ptr %41, align 8, !tbaa !93
  %indvars.iv.next = add nuw nsw i64 %indvars.iv, 1
  %exitcond.not = icmp eq i64 %indvars.iv.next, 6
  br i1 %exitcond.not, label %42, label %16, !llvm.loop !194

42:                                               ; preds = %Vec_PtrPush.exit
  %43 = trunc nsw i64 %indvars.iv.next14 to i32
  store i32 %43, ptr %9, align 4, !tbaa !73
  store i32 %39, ptr %8, align 8
  call void @llvm.lifetime.start.p0(i64 8, ptr nonnull %2) #32
  %44 = load i64, ptr %4, align 16, !tbaa !94
  %45 = load i64, ptr %5, align 8, !tbaa !94
  %46 = or i64 %45, %44
  %47 = load i64, ptr %6, align 16, !tbaa !94
  %48 = load i64, ptr %7, align 8, !tbaa !94
  %49 = and i64 %46, %47
  %50 = and i64 %49, %48
  store i64 %50, ptr %2, align 8, !tbaa !94
  %51 = xor i64 %50, -1
  store i64 %51, ptr %1, align 16, !tbaa !94
  %52 = getelementptr inbounds nuw i8, ptr %1, i64 8
  store i64 %50, ptr %52, align 8, !tbaa !94
  %53 = load ptr, ptr @stdout, align 8, !tbaa !191
  call void @Extra_PrintHex(ptr noundef %53, ptr noundef nonnull %2, i32 noundef 6) #32
  %putchar = call i32 @putchar(i32 32)
  call void @Dau_DsdPrintFromTruth2(ptr noundef nonnull %2, i32 noundef 6) #32
  %54 = call i32 (ptr, ...) @printf(ptr noundef nonnull dereferenceable(1) @.str.35)
  call void @Gia_ManResubPerform(ptr noundef %3, ptr noundef nonnull %8, i32 noundef 1, i32 noundef 100, i32 noundef 0, i32 noundef 50, i32 noundef 1, i32 noundef 1, i32 noundef 0, i32 noundef 0)
  call void @llvm.lifetime.end.p0(i64 8, ptr nonnull %2) #32
  call void @Gia_ResbFree(ptr noundef %3)
  %55 = load ptr, ptr %15, align 8, !tbaa !30
  %.not.i = icmp eq ptr %55, null
  br i1 %.not.i, label %Vec_IntFree.exit, label %56

56:                                               ; preds = %42
  call void @free(ptr noundef nonnull %55) #32
  br label %Vec_IntFree.exit

Vec_IntFree.exit:                                 ; preds = %42, %56
  call void @free(ptr noundef nonnull %12) #32
  %57 = load ptr, ptr %11, align 8, !tbaa !76
  %.not.i8 = icmp eq ptr %57, null
  br i1 %.not.i8, label %Vec_PtrFree.exit, label %58

58:                                               ; preds = %Vec_IntFree.exit
  call void @free(ptr noundef nonnull %57) #32
  br label %Vec_PtrFree.exit

Vec_PtrFree.exit:                                 ; preds = %Vec_IntFree.exit, %58
  call void @free(ptr noundef nonnull %8) #32
  call void @llvm.lifetime.end.p0(i64 48, ptr nonnull %1) #32
  ret void
}